; Function Attrs: nounwind uwtable
define void @Lms_GiaPrintSubgraph(ptr noundef %0, ptr noundef %1) local_unnamed_addr #0 {
  %3 = load i64, ptr %1, align 4
  %4 = and i64 %3, 536870911
  %5 = sub nsw i64 0, %4
  %6 = getelementptr inbounds %struct.Gia_Obj_t_, ptr %1, i64 %5
  %.val = load i64, ptr %6, align 4
  %7 = and i64 %.val, 2147483648
  %.not.i = icmp ne i64 %7, 0
  %8 = and i64 %.val, 536870911
  %9 = icmp eq i64 %8, 536870911
  %narrow.i.not = or i1 %.not.i, %9
  br i1 %narrow.i.not, label %15, label %10

10:                                               ; preds = %2
  tail call void @Lms_ObjAreaMark_rec(ptr noundef nonnull %6)
  %11 = load i64, ptr %1, align 4
  %12 = and i64 %11, 536870911
  %13 = sub nsw i64 0, %12
  %14 = getelementptr inbounds %struct.Gia_Obj_t_, ptr %1, i64 %13
  tail call void @Lms_GiaPrintSubgraph_rec(ptr noundef %0, ptr noundef nonnull %14)
  br label %16

15:                                               ; preds = %2
  tail call void @Gia_ObjPrint(ptr noundef %0, ptr noundef nonnull %6) #25
  br label %16

16:                                               ; preds = %15, %10
  tail call void @Gia_ObjPrint(ptr noundef %0, ptr noundef nonnull %1) #25
  ret void
}